; Function Attrs: mustprogress uwtable
define noundef i32 @_ZNK17FilterDocSampling8getClassEPK7QAction(ptr noundef nonnull align 8 dereferenceable(80) %0, ptr noundef %1) unnamed_addr #9 align 2 {
  %3 = getelementptr inbounds i8, ptr %0, i64 16
  %4 = load ptr, ptr %3, align 8
  %5 = getelementptr inbounds i8, ptr %4, i64 144
  %6 = load ptr, ptr %5, align 8
  %7 = tail call noundef i32 %6(ptr noundef nonnull align 8 dereferenceable(64) %3, ptr noundef %1)
  %8 = icmp ult i32 %7, 14
  br i1 %8, label %switch.lookup, label %10

switch.lookup:                                    ; preds = %2
  %9 = zext nneg i32 %7 to i64
  %switch.gep = getelementptr inbounds [14 x i32], ptr @switch.table._ZThn16_NK17FilterDocSampling8getClassEPK7QAction, i64 0, i64 %9
  %switch.load = load i32, ptr %switch.gep, align 4
  br label %10

10:                                               ; preds = %2, %switch.lookup
  %.0 = phi i32 [ %switch.load, %switch.lookup ], [ 0, %2 ]
  ret i32 %.0
}